; Function Attrs: nofree norecurse nosync nounwind null_pointer_is_valid sspstrong memory(read, inaccessiblemem: none) uwtable
define hidden ptr @ua_keysets_lookup(i64 noundef %0) local_unnamed_addr #6 {
  %.b2 = load i1, ptr @g_sorted, align 1
  br i1 %.b2, label %2, label %bsearch.exit

2:                                                ; preds = %1
  %3 = load ptr, ptr @g_keysets, align 8
  %4 = load i32, ptr @g_num_keysets, align 4
  %.not24.i = icmp eq i32 %4, 0
  br i1 %.not24.i, label %bsearch.exit, label %.lr.ph.i.preheader

.lr.ph.i.preheader:                               ; preds = %2
  %5 = zext i32 %4 to i64
  br label %.lr.ph.i

.lr.ph.i:                                         ; preds = %.lr.ph.i.preheader, %15
  %.01621.i = phi i64 [ %.1.i, %15 ], [ 0, %.lr.ph.i.preheader ]
  %.01720.i = phi i64 [ %.118.i, %15 ], [ %5, %.lr.ph.i.preheader ]
  %6 = add i64 %.01720.i, %.01621.i
  %7 = lshr i64 %6, 1
  %8 = mul i64 %7, 120
  %9 = getelementptr i8, ptr %3, i64 %8
  %10 = load i64, ptr %9, align 8
  %11 = icmp ult i64 %0, %10
  br i1 %11, label %15, label %12

12:                                               ; preds = %.lr.ph.i
  %.not.i = icmp eq i64 %0, %10
  br i1 %.not.i, label %bsearch.exit.loopexit.split.loop.exit, label %13

13:                                               ; preds = %12
  %14 = add nuw i64 %7, 1
  br label %15

15:                                               ; preds = %13, %.lr.ph.i
  %.118.i = phi i64 [ %.01720.i, %13 ], [ %7, %.lr.ph.i ]
  %.1.i = phi i64 [ %14, %13 ], [ %.01621.i, %.lr.ph.i ]
  %16 = icmp ult i64 %.1.i, %.118.i
  br i1 %16, label %.lr.ph.i, label %bsearch.exit, !llvm.loop !6

bsearch.exit.loopexit.split.loop.exit:            ; preds = %12
  %17 = getelementptr i8, ptr %3, i64 %8
  br label %bsearch.exit

bsearch.exit:                                     ; preds = %15, %bsearch.exit.loopexit.split.loop.exit, %2, %1
  %.0 = phi ptr [ null, %1 ], [ null, %2 ], [ %17, %bsearch.exit.loopexit.split.loop.exit ], [ null, %15 ]
  ret ptr %.0
}